target datalayout = "e-m:e-p270:32:32-p271:32:32-p272:64:64-i64:64-i128:128-f80:128-n8:16:32:64-S128"
target triple = "x86_64-unknown-linux-gnu"

%"class.std::__cxx11::basic_string" = type { %"struct.std::__cxx11::basic_string<char>::_Alloc_hider", i64, %union.anon }
%"struct.std::__cxx11::basic_string<char>::_Alloc_hider" = type { ptr }
%union.anon = type { i64, [8 x i8] }
%"struct.openvdb::v11_0::VersionId" = type { i32, i32 }
%"class.openvdb::v11_0::io::Archive" = type <{ ptr, i32, %"struct.openvdb::v11_0::VersionId", [4 x i8], %"class.std::__cxx11::basic_string", i8, i8, [2 x i8], i32, i8, [7 x i8] }>

; Function Attrs: mustprogress nounwind uwtable
define linkonce_odr void @_ZN7openvdb5v11_09VersionIdC2Ejj(ptr noundef nonnull align 4 dereferenceable(8) %this, i32 noundef %major, i32 noundef %minor) unnamed_addr #5 comdat align 2 {
entry:
  %this.addr = alloca ptr, align 8
  %major.addr = alloca i32, align 4
  %minor.addr = alloca i32, align 4
  store ptr %this, ptr %this.addr, align 8
  store i32 %major, ptr %major.addr, align 4
  store i32 %minor, ptr %minor.addr, align 4
  %this1 = load ptr, ptr %this.addr, align 8
  %first = getelementptr inbounds %"struct.openvdb::v11_0::VersionId", ptr %this1, i32 0, i32 0
  %0 = load i32, ptr %major.addr, align 4
  store i32 %0, ptr %first, align 4
  %second = getelementptr inbounds %"struct.openvdb::v11_0::VersionId", ptr %this1, i32 0, i32 1
  %1 = load i32, ptr %minor.addr, align 4
  store i32 %1, ptr %second, align 4
  ret void
}

; Function Attrs: mustprogress uwtable
define void @_ZN7openvdb5v11_02io7ArchiveC2Ev(ptr noundef nonnull align 8 dereferenceable(65) %this) unnamed_addr #4 align 2 {
entry:
  %this.addr = alloca ptr, align 8
  store ptr %this, ptr %this.addr, align 8
  %this1 = load ptr, ptr %this.addr, align 8
  store ptr getelementptr inbounds ({ [6 x ptr] }, ptr @_ZTVN7openvdb5v11_02io7ArchiveE, i32 0, i32 0, i32 2), ptr %this1, align 8
  %mFileVersion = getelementptr inbounds %"class.openvdb::v11_0::io::Archive", ptr %this1, i32 0, i32 1
  store i32 224, ptr %mFileVersion, align 8
  %mLibraryVersion = getelementptr inbounds %"class.openvdb::v11_0::io::Archive", ptr %this1, i32 0, i32 2
  call void @_ZN7openvdb5v11_09VersionIdC2Ejj(ptr noundef nonnull align 4 dereferenceable(8) %mLibraryVersion, i32 noundef 11, i32 noundef 0)
  %mUuid = getelementptr inbounds %"class.openvdb::v11_0::io::Archive", ptr %this1, i32 0, i32 4
  call void @_ZNSt7__cxx1112basic_stringIcSt11char_traitsIcESaIcEEC1Ev(ptr noundef nonnull align 8 dereferenceable(32) %mUuid) #3
  %mInputHasGridOffsets = getelementptr inbounds %"class.openvdb::v11_0::io::Archive", ptr %this1, i32 0, i32 5
  store i8 0, ptr %mInputHasGridOffsets, align 8
  %mEnableInstancing = getelementptr inbounds %"class.openvdb::v11_0::io::Archive", ptr %this1, i32 0, i32 6
  store i8 1, ptr %mEnableInstancing, align 1
  %mCompression = getelementptr inbounds %"class.openvdb::v11_0::io::Archive", ptr %this1, i32 0, i32 8
  store i32 6, ptr %mCompression, align 4
  %mEnableGridStats = getelementptr inbounds %"class.openvdb::v11_0::io::Archive", ptr %this1, i32 0, i32 9
  store i8 1, ptr %mEnableGridStats, align 8
  ret void
}