; Function Attrs: mustprogress nounwind uwtable
define void @_ZN7openvdb5v11_02io7ArchiveC2Ev(ptr noundef nonnull align 8 dereferenceable(65) %this) unnamed_addr #8 align 2 {
entry:
  store ptr getelementptr inbounds ({ [6 x ptr] }, ptr @_ZTVN7openvdb5v11_02io7ArchiveE, i64 0, i32 0, i64 2), ptr %this, align 8
  %mFileVersion = getelementptr inbounds i8, ptr %this, i64 8
  store i32 224, ptr %mFileVersion, align 8
  %mLibraryVersion = getelementptr inbounds i8, ptr %this, i64 12
  store i32 11, ptr %mLibraryVersion, align 4
  %second.i = getelementptr inbounds i8, ptr %this, i64 16
  store i32 0, ptr %second.i, align 8
  %mUuid = getelementptr inbounds i8, ptr %this, i64 24
  tail call void @_ZNSt7__cxx1112basic_stringIcSt11char_traitsIcESaIcEEC1Ev(ptr noundef nonnull align 8 dereferenceable(32) %mUuid) #25
  %mInputHasGridOffsets = getelementptr inbounds i8, ptr %this, i64 56
  store i8 0, ptr %mInputHasGridOffsets, align 8
  %mEnableInstancing = getelementptr inbounds i8, ptr %this, i64 57
  store i8 1, ptr %mEnableInstancing, align 1
  %mCompression = getelementptr inbounds i8, ptr %this, i64 60
  store i32 6, ptr %mCompression, align 4
  %mEnableGridStats = getelementptr inbounds i8, ptr %this, i64 64
  store i8 1, ptr %mEnableGridStats, align 8
  ret void
}